; Function Attrs: mustprogress nounwind uwtable
define void @_ZN6duckdb22ListAggregatesBindDataD2Ev(ptr noundef nonnull align 8 dereferenceable(40) initializes((0, 8)) %0) unnamed_addr #5 align 2 {
  store ptr getelementptr inbounds nuw inrange(-16, 32) (i8, ptr @_ZTVN6duckdb22ListAggregatesBindDataE, i64 16), ptr %0, align 8, !tbaa !87
  %2 = getelementptr inbounds nuw i8, ptr %0, i64 32
  %3 = load ptr, ptr %2, align 8, !tbaa !94
  %.not.i = icmp eq ptr %3, null
  br i1 %.not.i, label %_ZNSt10unique_ptrIN6duckdb10ExpressionESt14default_deleteIS1_EED2Ev.exit, label %_ZNKSt14default_deleteIN6duckdb10ExpressionEEclEPS1_.exit.i

_ZNKSt14default_deleteIN6duckdb10ExpressionEEclEPS1_.exit.i: ; preds = %1
  %4 = load ptr, ptr %3, align 8, !tbaa !87
  %5 = getelementptr inbounds nuw i8, ptr %4, i64 8
  %6 = load ptr, ptr %5, align 8
  tail call void %6(ptr noundef nonnull align 8 dereferenceable(88) %3) #27
  br label %_ZNSt10unique_ptrIN6duckdb10ExpressionESt14default_deleteIS1_EED2Ev.exit

_ZNSt10unique_ptrIN6duckdb10ExpressionESt14default_deleteIS1_EED2Ev.exit: ; preds = %1, %_ZNKSt14default_deleteIN6duckdb10ExpressionEEclEPS1_.exit.i
  store ptr null, ptr %2, align 8, !tbaa !94
  %7 = getelementptr inbounds nuw i8, ptr %0, i64 8
  tail call void @_ZN6duckdb11LogicalTypeD1Ev(ptr noundef nonnull align 8 dereferenceable(24) %7) #27
  tail call void @_ZN6duckdb12FunctionDataD2Ev(ptr noundef nonnull align 8 dereferenceable(8) %0) #27
  ret void
}